Certificate:
    Data:
        Version: 3 (0x2)
        Serial Number: 1 (0x1)
        Signature Algorithm: ecdsa-with-SHA256
        Issuer: C=IT, ST=Italia, L=Fisciano, O=DQV, CN=DQV
        Validity
            Not Before: Jun 23 16:16:39 2020 GMT
            Not After : Jun 23 16:16:39 2021 GMT
        Subject: C=IT, ST=Italia, O=DQV, CN=ASL SA
        Subject Public Key Info:
            Public Key Algorithm: id-ecPublicKey
                Public-Key: (256 bit)
                pub:
                    04:00:9d:6b:ba:96:5d:78:99:88:fa:8a:93:fd:ea:
                    11:25:21:d3:3f:e1:2b:fe:e0:ce:7d:36:d2:40:dc:
                    f8:f9:74:ec:65:c8:d8:f0:4e:f4:70:68:5c:ff:a9:
                    9a:93:83:a3:10:a0:7f:e8:82:32:e3:42:a6:57:86:
                    58:ad:38:68:93
                ASN1 OID: prime256v1
                NIST CURVE: P-256
        X509v3 extensions:
            X509v3 Basic Constraints: 
                CA:FALSE
            Netscape Comment: 
                OpenSSL Generated Certificate
            X509v3 Subject Key Identifier: 
                BD:9F:FF:F1:66:1C:E7:81:82:D9:30:E6:70:E4:86:FC:70:B2:55:BE
            X509v3 Authority Key Identifier: 
                keyid:31:EB:E6:02:3D:D1:46:A0:9A:64:95:12:EC:0A:63:58:AE:2D:01:89

    Signature Algorithm: ecdsa-with-SHA256
         30:46:02:21:00:96:ab:19:0a:61:c3:0b:c9:5a:0a:28:dd:4a:
         c7:dc:ff:22:15:98:78:84:39:37:a0:01:4a:91:89:1a:f9:ef:
         e1:02:21:00:ba:50:9e:96:ba:b7:66:45:49:93:ca:87:e3:fd:
         0b:92:3c:85:c9:5f:d5:0d:c7:26:03:6c:02:07:bb:fa:ef:d6
-----BEGIN CERTIFICATE-----
MIIB9TCCAZqgAwIBAgIBATAKBggqhkjOPQQDAjBNMQswCQYDVQQGEwJJVDEPMA0G
A1UECAwGSXRhbGlhMREwDwYDVQQHDAhGaXNjaWFubzEMMAoGA1UECgwDRFFWMQww
CgYDVQQDDANEUVYwHhcNMjAwNjIzMTYxNjM5WhcNMjEwNjIzMTYxNjM5WjA9MQsw
CQYDVQQGEwJJVDEPMA0GA1UECAwGSXRhbGlhMQwwCgYDVQQKDANEUVYxDzANBgNV
BAMMBkFTTCBTQTBZMBMGByqGSM49AgEGCCqGSM49AwEHA0IABACda7qWXXiZiPqK
k/3qESUh0z/hK/7gzn020kDc+Pl07GXI2PBO9HBoXP+pmpODoxCgf+iCMuNCpleG
WK04aJOjezB5MAkGA1UdEwQCMAAwLAYJYIZIAYb4QgENBB8WHU9wZW5TU0wgR2Vu
ZXJhdGVkIENlcnRpZmljYXRlMB0GA1UdDgQWBBS9n//xZhzngYLZMOZw5Ib8cLJV
vjAfBgNVHSMEGDAWgBQx6+YCPdFGoJpklRLsCmNYri0BiTAKBggqhkjOPQQDAgNJ
ADBGAiEAlqsZCmHDC8laCijdSsfc/yIVmHiEOTegAUqRiRr57+ECIQC6UJ6Wurdm
RUmTyofj/QuSPIXJX9UNxyYDbAIHu/rv1g==
-----END CERTIFICATE-----
