Certificate:
    Data:
        Version: 3 (0x2)
        Serial Number: 2 (0x2)
        Signature Algorithm: ecdsa-with-SHA256
        Issuer: C=IT, ST=Italia, L=Fisciano, O=DQV, CN=DQV
        Validity
            Not Before: Jun 24 09:29:11 2020 GMT
            Not After : Jun 24 09:29:11 2021 GMT
        Subject: C=IT, ST=Italia, O=DQV, CN=Server DQV
        Subject Public Key Info:
            Public Key Algorithm: id-ecPublicKey
                Public-Key: (256 bit)
                pub:
                    04:95:e2:a6:ab:19:4a:51:2d:e8:58:e2:fc:de:04:
                    0b:40:db:0b:1d:39:b0:7e:95:9d:b7:ad:bb:84:ea:
                    73:cf:72:5b:29:93:ba:00:a9:f5:a7:5d:73:6f:f4:
                    ef:45:0d:f6:c3:b8:d2:ae:60:e3:74:f2:58:f0:d3:
                    32:75:80:48:05
                ASN1 OID: prime256v1
                NIST CURVE: P-256
        X509v3 extensions:
            X509v3 Basic Constraints: 
                CA:FALSE
            Netscape Comment: 
                OpenSSL Generated Certificate
            X509v3 Subject Key Identifier: 
                D4:AF:97:B8:41:1B:02:AB:31:9C:C3:03:DE:10:07:DA:48:AF:F4:CC
            X509v3 Authority Key Identifier: 
                keyid:31:EB:E6:02:3D:D1:46:A0:9A:64:95:12:EC:0A:63:58:AE:2D:01:89

    Signature Algorithm: ecdsa-with-SHA256
         30:45:02:20:03:eb:64:3d:6f:7e:2b:68:43:75:5c:23:c1:64:
         3a:e4:12:2c:9b:85:6f:14:12:de:d9:2c:64:15:02:34:26:54:
         02:21:00:b3:fe:1d:b9:23:38:34:16:1b:b7:ff:9a:40:bd:81:
         30:ec:a7:bb:94:5b:cf:49:c7:09:b5:15:6d:3f:46:05:d7
-----BEGIN CERTIFICATE-----
MIIB+DCCAZ6gAwIBAgIBAjAKBggqhkjOPQQDAjBNMQswCQYDVQQGEwJJVDEPMA0G
A1UECAwGSXRhbGlhMREwDwYDVQQHDAhGaXNjaWFubzEMMAoGA1UECgwDRFFWMQww
CgYDVQQDDANEUVYwHhcNMjAwNjI0MDkyOTExWhcNMjEwNjI0MDkyOTExWjBBMQsw
CQYDVQQGEwJJVDEPMA0GA1UECAwGSXRhbGlhMQwwCgYDVQQKDANEUVYxEzARBgNV
BAMMClNlcnZlciBEUVYwWTATBgcqhkjOPQIBBggqhkjOPQMBBwNCAASV4qarGUpR
LehY4vzeBAtA2wsdObB+lZ23rbuE6nPPclspk7oAqfWnXXNv9O9FDfbDuNKuYON0
8ljw0zJ1gEgFo3sweTAJBgNVHRMEAjAAMCwGCWCGSAGG+EIBDQQfFh1PcGVuU1NM
IEdlbmVyYXRlZCBDZXJ0aWZpY2F0ZTAdBgNVHQ4EFgQU1K+XuEEbAqsxnMMD3hAH
2kiv9MwwHwYDVR0jBBgwFoAUMevmAj3RRqCaZJUS7ApjWK4tAYkwCgYIKoZIzj0E
AwIDSAAwRQIgA+tkPW9+K2hDdVwjwWQ65BIsm4VvFBLe2SxkFQI0JlQCIQCz/h25
Izg0Fhu3/5pAvYEw7Ke7lFvPSccJtRVtP0YF1w==
-----END CERTIFICATE-----
